target datalayout = "e-m:e-p270:32:32-p271:32:32-p272:64:64-i64:64-i128:128-f80:128-n8:16:32:64-S128"
target triple = "x86_64-unknown-linux-gnu"

%"class.std::__cxx11::basic_string" = type { %"struct.std::__cxx11::basic_string<char>::_Alloc_hider", i64, %union.anon }
%"struct.std::__cxx11::basic_string<char>::_Alloc_hider" = type { ptr }
%union.anon = type { i64, [8 x i8] }
%"class.Assimp::LWSImporter" = type <{ %"class.Assimp::BaseImporter", i8, [7 x i8], ptr, double, double, double, i8, [7 x i8] }>
%"class.Assimp::BaseImporter" = type { ptr, double, double, %"class.std::__cxx11::basic_string", %"class.std::__exception_ptr::exception_ptr", ptr }
%"class.std::__exception_ptr::exception_ptr" = type { ptr }

; Function Attrs: mustprogress nounwind uwtable
define hidden void @_ZN6Assimp11LWSImporterC2Ev(ptr noundef nonnull align 8 dereferenceable(113) %this) unnamed_addr #0 align 2 {
entry:
  %this.addr = alloca ptr, align 8
  store ptr %this, ptr %this.addr, align 8
  %this1 = load ptr, ptr %this.addr, align 8
  call void @_ZN6Assimp12BaseImporterC2Ev(ptr noundef nonnull align 8 dereferenceable(72) %this1) #14
  store ptr getelementptr inbounds ({ [8 x ptr] }, ptr @_ZTVN6Assimp11LWSImporterE, i32 0, i32 0, i32 2), ptr %this1, align 8
  %configSpeedFlag = getelementptr inbounds %"class.Assimp::LWSImporter", ptr %this1, i32 0, i32 1
  store i8 0, ptr %configSpeedFlag, align 8
  %io = getelementptr inbounds %"class.Assimp::LWSImporter", ptr %this1, i32 0, i32 3
  store ptr null, ptr %io, align 8
  %first = getelementptr inbounds %"class.Assimp::LWSImporter", ptr %this1, i32 0, i32 4
  store double 0.000000e+00, ptr %first, align 8
  %last = getelementptr inbounds %"class.Assimp::LWSImporter", ptr %this1, i32 0, i32 5
  store double 0.000000e+00, ptr %last, align 8
  %fps = getelementptr inbounds %"class.Assimp::LWSImporter", ptr %this1, i32 0, i32 6
  store double 0.000000e+00, ptr %fps, align 8
  %noSkeletonMesh = getelementptr inbounds %"class.Assimp::LWSImporter", ptr %this1, i32 0, i32 7
  store i8 0, ptr %noSkeletonMesh, align 8
  ret void
}