; Function Attrs: mustprogress nounwind uwtable
define hidden void @_ZN6Assimp11LWSImporterC2Ev(ptr noundef nonnull align 8 dereferenceable(113) %this) unnamed_addr #4 align 2 {
entry:
  tail call void @_ZN6Assimp12BaseImporterC2Ev(ptr noundef nonnull align 8 dereferenceable(72) %this) #18
  store ptr getelementptr inbounds ({ [8 x ptr] }, ptr @_ZTVN6Assimp11LWSImporterE, i64 0, i32 0, i64 2), ptr %this, align 8
  %configSpeedFlag = getelementptr inbounds i8, ptr %this, i64 72
  store i8 0, ptr %configSpeedFlag, align 8
  %io = getelementptr inbounds i8, ptr %this, i64 80
  tail call void @llvm.memset.p0.i64(ptr noundef nonnull align 8 dereferenceable(33) %io, i8 0, i64 33, i1 false)
  ret void
}